target datalayout = "e-m:e-p270:32:32-p271:32:32-p272:64:64-i64:64-i128:128-f80:128-n8:16:32:64-S128"
target triple = "x86_64-pc-linux-gnu"

%struct.nghttp2_hd_entry = type { %struct.nghttp2_hd_nv, %struct.nghttp2_nv, ptr, i32, i32 }
%struct.nghttp2_hd_nv = type { ptr, ptr, i32, i8 }
%struct.nghttp2_nv = type { ptr, ptr, i64, i64, i8 }
%struct.nghttp2_hd_context = type { %struct.nghttp2_hd_ringbuf, ptr, i64, i64, i32, i8 }
%struct.nghttp2_hd_ringbuf = type { ptr, i64, i64, i64 }
%struct.nghttp2_hd_inflater = type { %struct.nghttp2_hd_context, %struct.nghttp2_hd_huff_decode_context, %struct.nghttp2_buf, %struct.nghttp2_buf, ptr, ptr, ptr, ptr, i64, i64, i64, i64, i64, i32, i32, i8, i8, i8 }
%struct.nghttp2_hd_huff_decode_context = type { i16 }
%struct.nghttp2_buf = type { ptr, ptr, ptr, ptr, ptr }

@.str.1 = private unnamed_addr constant [110 x i8] c"generated/home/dtcxzyw/WorkSpace/Projects/compilers/llvm-opt-benchmark/bench/nghttp2/nghttp2/lib/nghttp2_hd.c\00", align 1
@.str.4 = private unnamed_addr constant [19 x i8] c"idx < ringbuf->len\00", align 1
@__PRETTY_FUNCTION__.hd_ringbuf_get = private unnamed_addr constant [63 x i8] c"nghttp2_hd_entry *hd_ringbuf_get(nghttp2_hd_ringbuf *, size_t)\00", align 1

; Function Attrs: nounwind uwtable
define hidden void @nghttp2_hd_entry_free(ptr noundef %0) #0 {
  %2 = alloca ptr, align 8
  store ptr %0, ptr %2, align 8, !tbaa !3
  %3 = load ptr, ptr %2, align 8, !tbaa !3
  %4 = getelementptr inbounds nuw %struct.nghttp2_hd_entry, ptr %3, i32 0, i32 0
  %5 = getelementptr inbounds nuw %struct.nghttp2_hd_nv, ptr %4, i32 0, i32 1
  %6 = load ptr, ptr %5, align 8, !tbaa !34
  call void @nghttp2_rcbuf_decref(ptr noundef %6)
  %7 = load ptr, ptr %2, align 8, !tbaa !3
  %8 = getelementptr inbounds nuw %struct.nghttp2_hd_entry, ptr %7, i32 0, i32 0
  %9 = getelementptr inbounds nuw %struct.nghttp2_hd_nv, ptr %8, i32 0, i32 0
  %10 = load ptr, ptr %9, align 8, !tbaa !33
  call void @nghttp2_rcbuf_decref(ptr noundef %10)
  ret void
}

; Function Attrs: nounwind uwtable
define internal ptr @hd_ringbuf_get(ptr noundef %0, i64 noundef %1) #0 {
  %3 = alloca ptr, align 8
  %4 = alloca i64, align 8
  store ptr %0, ptr %3, align 8, !tbaa !8
  store i64 %1, ptr %4, align 8, !tbaa !37
  %5 = load i64, ptr %4, align 8, !tbaa !37
  %6 = load ptr, ptr %3, align 8, !tbaa !8
  %7 = getelementptr inbounds nuw %struct.nghttp2_hd_ringbuf, ptr %6, i32 0, i32 3
  %8 = load i64, ptr %7, align 8, !tbaa !80
  %9 = icmp ult i64 %5, %8
  br i1 %9, label %10, label %11

10:                                               ; preds = %2
  br label %12

11:                                               ; preds = %2
  call void @__assert_fail(ptr noundef @.str.4, ptr noundef @.str.1, i32 noundef 622, ptr noundef @__PRETTY_FUNCTION__.hd_ringbuf_get) #9
  unreachable

12:                                               ; preds = %10
  %13 = load ptr, ptr %3, align 8, !tbaa !8
  %14 = getelementptr inbounds nuw %struct.nghttp2_hd_ringbuf, ptr %13, i32 0, i32 0
  %15 = load ptr, ptr %14, align 8, !tbaa !81
  %16 = load ptr, ptr %3, align 8, !tbaa !8
  %17 = getelementptr inbounds nuw %struct.nghttp2_hd_ringbuf, ptr %16, i32 0, i32 2
  %18 = load i64, ptr %17, align 8, !tbaa !82
  %19 = load i64, ptr %4, align 8, !tbaa !37
  %20 = add i64 %18, %19
  %21 = load ptr, ptr %3, align 8, !tbaa !8
  %22 = getelementptr inbounds nuw %struct.nghttp2_hd_ringbuf, ptr %21, i32 0, i32 1
  %23 = load i64, ptr %22, align 8, !tbaa !83
  %24 = and i64 %20, %23
  %25 = getelementptr inbounds nuw ptr, ptr %15, i64 %24
  %26 = load ptr, ptr %25, align 8, !tbaa !3
  ret ptr %26
}

; Function Attrs: nounwind uwtable
define internal void @hd_ringbuf_free(ptr noundef %0, ptr noundef %1) #0 {
  %3 = alloca ptr, align 8
  %4 = alloca ptr, align 8
  %5 = alloca i64, align 8
  %6 = alloca i32, align 4
  %7 = alloca ptr, align 8
  store ptr %0, ptr %3, align 8, !tbaa !8
  store ptr %1, ptr %4, align 8, !tbaa !8
  call void @llvm.lifetime.start.p0(i64 8, ptr %5) #8
  %8 = load ptr, ptr %3, align 8, !tbaa !8
  %9 = icmp eq ptr %8, null
  br i1 %9, label %10, label %11

10:                                               ; preds = %2
  store i32 1, ptr %6, align 4
  br label %33

11:                                               ; preds = %2
  store i64 0, ptr %5, align 8, !tbaa !37
  br label %12

12:                                               ; preds = %25, %11
  %13 = load i64, ptr %5, align 8, !tbaa !37
  %14 = load ptr, ptr %3, align 8, !tbaa !8
  %15 = getelementptr inbounds nuw %struct.nghttp2_hd_ringbuf, ptr %14, i32 0, i32 3
  %16 = load i64, ptr %15, align 8, !tbaa !80
  %17 = icmp ult i64 %13, %16
  br i1 %17, label %18, label %28

18:                                               ; preds = %12
  call void @llvm.lifetime.start.p0(i64 8, ptr %7) #8
  %19 = load ptr, ptr %3, align 8, !tbaa !8
  %20 = load i64, ptr %5, align 8, !tbaa !37
  %21 = call ptr @hd_ringbuf_get(ptr noundef %19, i64 noundef %20)
  store ptr %21, ptr %7, align 8, !tbaa !3
  %22 = load ptr, ptr %7, align 8, !tbaa !3
  call void @nghttp2_hd_entry_free(ptr noundef %22)
  %23 = load ptr, ptr %4, align 8, !tbaa !8
  %24 = load ptr, ptr %7, align 8, !tbaa !3
  call void @nghttp2_mem_free(ptr noundef %23, ptr noundef %24)
  call void @llvm.lifetime.end.p0(i64 8, ptr %7) #8
  br label %25

25:                                               ; preds = %18
  %26 = load i64, ptr %5, align 8, !tbaa !37
  %27 = add i64 %26, 1
  store i64 %27, ptr %5, align 8, !tbaa !37
  br label %12, !llvm.loop !119

28:                                               ; preds = %12
  %29 = load ptr, ptr %4, align 8, !tbaa !8
  %30 = load ptr, ptr %3, align 8, !tbaa !8
  %31 = getelementptr inbounds nuw %struct.nghttp2_hd_ringbuf, ptr %30, i32 0, i32 0
  %32 = load ptr, ptr %31, align 8, !tbaa !81
  call void @nghttp2_mem_free(ptr noundef %29, ptr noundef %32)
  store i32 0, ptr %6, align 4
  br label %33

33:                                               ; preds = %28, %10
  call void @llvm.lifetime.end.p0(i64 8, ptr %5) #8
  %34 = load i32, ptr %6, align 4
  switch i32 %34, label %36 [
    i32 0, label %35
    i32 1, label %35
  ]

35:                                               ; preds = %33, %33
  ret void

36:                                               ; preds = %33
  unreachable
}

; Function Attrs: nounwind uwtable
define internal void @hd_context_free(ptr noundef %0) #0 {
  %2 = alloca ptr, align 8
  store ptr %0, ptr %2, align 8, !tbaa !8
  %3 = load ptr, ptr %2, align 8, !tbaa !8
  %4 = getelementptr inbounds nuw %struct.nghttp2_hd_context, ptr %3, i32 0, i32 0
  %5 = load ptr, ptr %2, align 8, !tbaa !8
  %6 = getelementptr inbounds nuw %struct.nghttp2_hd_context, ptr %5, i32 0, i32 1
  %7 = load ptr, ptr %6, align 8, !tbaa !48
  call void @hd_ringbuf_free(ptr noundef %4, ptr noundef %7)
  ret void
}

; Function Attrs: nounwind uwtable
define internal void @hd_inflate_keep_free(ptr noundef %0) #0 {
  %2 = alloca ptr, align 8
  store ptr %0, ptr %2, align 8, !tbaa !53
  %3 = load ptr, ptr %2, align 8, !tbaa !53
  %4 = getelementptr inbounds nuw %struct.nghttp2_hd_inflater, ptr %3, i32 0, i32 7
  %5 = load ptr, ptr %4, align 8, !tbaa !62
  call void @nghttp2_rcbuf_decref(ptr noundef %5)
  %6 = load ptr, ptr %2, align 8, !tbaa !53
  %7 = getelementptr inbounds nuw %struct.nghttp2_hd_inflater, ptr %6, i32 0, i32 6
  %8 = load ptr, ptr %7, align 8, !tbaa !61
  call void @nghttp2_rcbuf_decref(ptr noundef %8)
  %9 = load ptr, ptr %2, align 8, !tbaa !53
  %10 = getelementptr inbounds nuw %struct.nghttp2_hd_inflater, ptr %9, i32 0, i32 7
  store ptr null, ptr %10, align 8, !tbaa !62
  %11 = load ptr, ptr %2, align 8, !tbaa !53
  %12 = getelementptr inbounds nuw %struct.nghttp2_hd_inflater, ptr %11, i32 0, i32 6
  store ptr null, ptr %12, align 8, !tbaa !61
  ret void
}

; Function Attrs: nounwind uwtable
define hidden void @nghttp2_hd_inflate_free(ptr noundef %0) #0 {
  %2 = alloca ptr, align 8
  store ptr %0, ptr %2, align 8, !tbaa !53
  %3 = load ptr, ptr %2, align 8, !tbaa !53
  call void @hd_inflate_keep_free(ptr noundef %3)
  %4 = load ptr, ptr %2, align 8, !tbaa !53
  %5 = getelementptr inbounds nuw %struct.nghttp2_hd_inflater, ptr %4, i32 0, i32 5
  %6 = load ptr, ptr %5, align 8, !tbaa !66
  call void @nghttp2_rcbuf_decref(ptr noundef %6)
  %7 = load ptr, ptr %2, align 8, !tbaa !53
  %8 = getelementptr inbounds nuw %struct.nghttp2_hd_inflater, ptr %7, i32 0, i32 4
  %9 = load ptr, ptr %8, align 8, !tbaa !65
  call void @nghttp2_rcbuf_decref(ptr noundef %9)
  %10 = load ptr, ptr %2, align 8, !tbaa !53
  %11 = getelementptr inbounds nuw %struct.nghttp2_hd_inflater, ptr %10, i32 0, i32 0
  call void @hd_context_free(ptr noundef %11)
  ret void
}