; Function Attrs: nounwind uwtable
define hidden void @nghttp2_hd_inflate_free(ptr noundef captures(none) %0) local_unnamed_addr #0 {
  %2 = getelementptr inbounds nuw i8, ptr %0, i64 176
  %3 = load ptr, ptr %2, align 8, !tbaa !67
  tail call void @nghttp2_rcbuf_decref(ptr noundef %3) #12
  %4 = getelementptr inbounds nuw i8, ptr %0, i64 168
  %5 = load ptr, ptr %4, align 8, !tbaa !68
  tail call void @nghttp2_rcbuf_decref(ptr noundef %5) #12
  tail call void @llvm.memset.p0.i64(ptr noundef nonnull align 8 dereferenceable(16) %4, i8 0, i64 16, i1 false)
  %6 = getelementptr inbounds nuw i8, ptr %0, i64 160
  %7 = load ptr, ptr %6, align 8, !tbaa !69
  tail call void @nghttp2_rcbuf_decref(ptr noundef %7) #12
  %8 = getelementptr inbounds nuw i8, ptr %0, i64 152
  %9 = load ptr, ptr %8, align 8, !tbaa !70
  tail call void @nghttp2_rcbuf_decref(ptr noundef %9) #12
  %10 = getelementptr inbounds nuw i8, ptr %0, i64 32
  %11 = load ptr, ptr %10, align 8, !tbaa !33
  %12 = getelementptr inbounds nuw i8, ptr %0, i64 24
  %13 = load i64, ptr %12, align 8, !tbaa !62
  %.not.i.i = icmp eq i64 %13, 0
  br i1 %.not.i.i, label %hd_context_free.exit, label %hd_ringbuf_get.exit.lr.ph.i.i

hd_ringbuf_get.exit.lr.ph.i.i:                    ; preds = %1
  %14 = getelementptr inbounds nuw i8, ptr %0, i64 16
  %15 = getelementptr inbounds nuw i8, ptr %0, i64 8
  br label %hd_ringbuf_get.exit.i.i

hd_ringbuf_get.exit.i.i:                          ; preds = %hd_ringbuf_get.exit.i.i, %hd_ringbuf_get.exit.lr.ph.i.i
  %.011.i.i = phi i64 [ 0, %hd_ringbuf_get.exit.lr.ph.i.i ], [ %26, %hd_ringbuf_get.exit.i.i ]
  %16 = load ptr, ptr %0, align 8, !tbaa !40
  %17 = load i64, ptr %14, align 8, !tbaa !63
  %18 = add i64 %17, %.011.i.i
  %19 = load i64, ptr %15, align 8, !tbaa !41
  %20 = and i64 %18, %19
  %21 = getelementptr inbounds nuw ptr, ptr %16, i64 %20
  %22 = load ptr, ptr %21, align 8, !tbaa !64
  %23 = getelementptr inbounds nuw i8, ptr %22, i64 8
  %24 = load ptr, ptr %23, align 8, !tbaa !32
  tail call void @nghttp2_rcbuf_decref(ptr noundef %24) #12
  %25 = load ptr, ptr %22, align 8, !tbaa !31
  tail call void @nghttp2_rcbuf_decref(ptr noundef %25) #12
  tail call void @nghttp2_mem_free(ptr noundef %11, ptr noundef nonnull %22) #12
  %26 = add nuw i64 %.011.i.i, 1
  %27 = load i64, ptr %12, align 8, !tbaa !62
  %28 = icmp ult i64 %26, %27
  br i1 %28, label %hd_ringbuf_get.exit.i.i, label %hd_context_free.exit, !llvm.loop !65

hd_context_free.exit:                             ; preds = %hd_ringbuf_get.exit.i.i, %1
  %29 = load ptr, ptr %0, align 8, !tbaa !40
  tail call void @nghttp2_mem_free(ptr noundef %11, ptr noundef %29) #12
  ret void
}